; Function Attrs: nounwind uwtable
define hidden void @av1_highbd_inv_txfm_add_64x64_c(ptr noundef %0, ptr noundef %1, i32 noundef %2, ptr nocapture noundef readonly %3) local_unnamed_addr #1 {
  %5 = getelementptr inbounds nuw i8, ptr %3, i64 8
  %6 = load i32, ptr %5, align 4
  %7 = load i8, ptr %3, align 4
  %8 = ptrtoint ptr %1 to i64
  %9 = shl i64 %8, 1
  %10 = inttoptr i64 %9 to ptr
  tail call void @av1_inv_txfm2d_add_64x64_c(ptr noundef %0, ptr noundef %10, i32 noundef %2, i8 noundef zeroext %7, i32 noundef %6) #5
  ret void
}